target datalayout = "e-m:e-p270:32:32-p271:32:32-p272:64:64-i64:64-i128:128-f80:128-n8:16:32:64-S128"
target triple = "x86_64-unknown-linux-gnu"

%struct.QEMUBH = type { ptr, ptr, ptr, ptr, %struct.anon, i32, ptr }
%struct.anon = type { ptr }
%struct.AioContext = type { %struct._GSource, %struct.QemuRecMutex, ptr, %struct.AioHandlerList, %struct.AioHandlerList, i32, %struct.QemuLockCnt, %struct.BHList, %struct.anon.1, i8, %struct.EventNotifier, %struct.anon.2, ptr, i32, i32, ptr, ptr, %struct.io_uring, %struct.AioHandlerSList, %struct.QEMUTimerListGroup, i32, i64, i64, i64, i64, i64, %struct.AioHandlerList, i8, i32, ptr }
%struct._GSource = type { ptr, ptr, ptr, i32, ptr, i32, i32, i32, ptr, ptr, ptr, ptr, ptr }
%struct.QemuRecMutex = type { %struct.QemuMutex }
%struct.QemuMutex = type { %union.pthread_mutex_t, i8 }
%union.pthread_mutex_t = type { %struct.__pthread_mutex_s }
%struct.__pthread_mutex_s = type { i32, i32, i32, i32, i32, i16, i16, %struct.__pthread_internal_list }
%struct.__pthread_internal_list = type { ptr, ptr }
%struct.QemuLockCnt = type { i32 }
%struct.BHList = type { ptr }
%struct.anon.1 = type { ptr, ptr }
%struct.EventNotifier = type { i32, i32, i8 }
%struct.anon.2 = type { ptr }
%struct.io_uring = type { %struct.io_uring_sq, %struct.io_uring_cq, i32, i32, i32, [3 x i32] }
%struct.io_uring_sq = type { ptr, ptr, ptr, ptr, ptr, ptr, ptr, ptr, i32, i32, i64, ptr, [4 x i32] }
%struct.io_uring_cq = type { ptr, ptr, ptr, ptr, ptr, ptr, ptr, i64, ptr, [4 x i32] }
%struct.AioHandlerSList = type { ptr }
%struct.QEMUTimerListGroup = type { [4 x ptr] }
%struct.AioHandlerList = type { ptr }

@.str = private unnamed_addr constant [21 x i8] c"../qemu/util/async.c\00", align 1
@__func__.aio_notify = private unnamed_addr constant [11 x i8] c"aio_notify\00", align 1
@__func__.aio_bh_enqueue = private unnamed_addr constant [15 x i8] c"aio_bh_enqueue\00", align 1

; Function Attrs: nounwind sspstrong uwtable
define dso_local void @aio_notify(ptr noundef %ctx) #0 {
entry:
  %ctx.addr = alloca ptr, align 8
  %.atomictmp = alloca i8, align 1
  %tmp = alloca i32, align 4
  %atomic-temp = alloca i32, align 4
  store ptr %ctx, ptr %ctx.addr, align 8
  call void asm sideeffect "", "~{memory},~{dirflag},~{fpsr},~{flags}"() #11, !srcloc !13
  fence release
  br label %do.body

do.body:                                          ; preds = %entry
  br label %while.cond

while.cond:                                       ; preds = %do.end, %do.body
  br i1 false, label %while.body, label %while.end

while.body:                                       ; preds = %while.cond
  br label %do.body1

do.body1:                                         ; preds = %while.body
  call void @g_assertion_message_expr(ptr noundef null, ptr noundef @.str, i32 noundef 492, ptr noundef @__func__.aio_notify, ptr noundef null) #10
  unreachable

do.end:                                           ; No predecessors!
  br label %while.cond

while.end:                                        ; preds = %while.cond
  %0 = load ptr, ptr %ctx.addr, align 8
  %notified = getelementptr inbounds %struct.AioContext, ptr %0, i32 0, i32 9
  store i8 1, ptr %.atomictmp, align 1
  %1 = load i8, ptr %.atomictmp, align 1
  store atomic i8 %1, ptr %notified monotonic, align 8
  br label %do.end2

do.end2:                                          ; preds = %while.end
  call void asm sideeffect "", "~{memory},~{dirflag},~{fpsr},~{flags}"() #11, !srcloc !14
  fence seq_cst
  br label %while.cond3

while.cond3:                                      ; preds = %do.end6, %do.end2
  br i1 false, label %while.body4, label %while.end7

while.body4:                                      ; preds = %while.cond3
  br label %do.body5

do.body5:                                         ; preds = %while.body4
  call void @g_assertion_message_expr(ptr noundef null, ptr noundef @.str, i32 noundef 499, ptr noundef @__func__.aio_notify, ptr noundef null) #10
  unreachable

do.end6:                                          ; No predecessors!
  br label %while.cond3

while.end7:                                       ; preds = %while.cond3
  %2 = load ptr, ptr %ctx.addr, align 8
  %notify_me = getelementptr inbounds %struct.AioContext, ptr %2, i32 0, i32 5
  %3 = load atomic i32, ptr %notify_me monotonic, align 8
  store i32 %3, ptr %atomic-temp, align 4
  %4 = load i32, ptr %atomic-temp, align 4
  store i32 %4, ptr %tmp, align 4
  %5 = load i32, ptr %tmp, align 4
  %tobool = icmp ne i32 %5, 0
  br i1 %tobool, label %if.then, label %if.end

if.then:                                          ; preds = %while.end7
  %6 = load ptr, ptr %ctx.addr, align 8
  %notifier = getelementptr inbounds %struct.AioContext, ptr %6, i32 0, i32 10
  %call = call i32 @event_notifier_set(ptr noundef %notifier)
  br label %if.end

if.end:                                           ; preds = %if.then, %while.end7
  ret void
}

; Function Attrs: nounwind sspstrong uwtable
define internal void @aio_bh_enqueue(ptr noundef %bh, i32 noundef %new_flags) #0 {
entry:
  %bh.addr = alloca ptr, align 8
  %new_flags.addr = alloca i32, align 4
  %ctx = alloca ptr, align 8
  %old_flags = alloca i32, align 4
  %.atomictmp = alloca i32, align 4
  %atomic-temp = alloca i32, align 4
  %save_sle_next = alloca ptr, align 8
  %tmp = alloca ptr, align 8
  %_old = alloca ptr, align 8
  %.atomictmp7 = alloca ptr, align 8
  %cmpxchg.bool = alloca i8, align 1
  %tmp9 = alloca ptr, align 8
  store ptr %bh, ptr %bh.addr, align 8
  store i32 %new_flags, ptr %new_flags.addr, align 4
  %0 = load ptr, ptr %bh.addr, align 8
  %ctx1 = getelementptr inbounds %struct.QEMUBH, ptr %0, i32 0, i32 0
  %1 = load ptr, ptr %ctx1, align 8
  store ptr %1, ptr %ctx, align 8
  %2 = load ptr, ptr %bh.addr, align 8
  %flags = getelementptr inbounds %struct.QEMUBH, ptr %2, i32 0, i32 5
  %3 = load i32, ptr %new_flags.addr, align 4
  %or = or i32 1, %3
  store i32 %or, ptr %.atomictmp, align 4
  %4 = load i32, ptr %.atomictmp, align 4
  %5 = atomicrmw or ptr %flags, i32 %4 seq_cst, align 8
  store i32 %5, ptr %atomic-temp, align 4
  %6 = load i32, ptr %atomic-temp, align 4
  store i32 %6, ptr %old_flags, align 4
  %7 = load i32, ptr %old_flags, align 4
  %and = and i32 %7, 1
  %tobool = icmp ne i32 %and, 0
  br i1 %tobool, label %if.end, label %if.then

if.then:                                          ; preds = %entry
  br label %do.body

do.body:                                          ; preds = %if.then
  br label %do.body2

do.body2:                                         ; preds = %cmpxchg.continue, %do.body
  %8 = load ptr, ptr %ctx, align 8
  %bh_list = getelementptr inbounds %struct.AioContext, ptr %8, i32 0, i32 7
  %slh_first = getelementptr inbounds %struct.BHList, ptr %bh_list, i32 0, i32 0
  %9 = load ptr, ptr %slh_first, align 8
  %10 = load ptr, ptr %bh.addr, align 8
  %next = getelementptr inbounds %struct.QEMUBH, ptr %10, i32 0, i32 4
  %sle_next = getelementptr inbounds %struct.anon, ptr %next, i32 0, i32 0
  store ptr %9, ptr %sle_next, align 8
  store ptr %9, ptr %save_sle_next, align 8
  br label %do.cond

do.cond:                                          ; preds = %do.body2
  br label %while.cond

while.cond:                                       ; preds = %do.end, %do.cond
  br i1 false, label %while.body, label %while.end

while.body:                                       ; preds = %while.cond
  br label %do.body3

do.body3:                                         ; preds = %while.body
  call void @g_assertion_message_expr(ptr noundef null, ptr noundef @.str, i32 noundef 93, ptr noundef @__func__.aio_bh_enqueue, ptr noundef null) #10
  unreachable

do.end:                                           ; No predecessors!
  br label %while.cond

while.end:                                        ; preds = %while.cond
  %11 = load ptr, ptr %save_sle_next, align 8
  store ptr %11, ptr %_old, align 8
  %12 = load ptr, ptr %ctx, align 8
  %bh_list5 = getelementptr inbounds %struct.AioContext, ptr %12, i32 0, i32 7
  %slh_first6 = getelementptr inbounds %struct.BHList, ptr %bh_list5, i32 0, i32 0
  %13 = load ptr, ptr %bh.addr, align 8
  store ptr %13, ptr %.atomictmp7, align 8
  %14 = load i64, ptr %_old, align 8
  %15 = load i64, ptr %.atomictmp7, align 8
  %16 = cmpxchg ptr %slh_first6, i64 %14, i64 %15 seq_cst seq_cst, align 8
  %17 = extractvalue { i64, i1 } %16, 0
  %18 = extractvalue { i64, i1 } %16, 1
  br i1 %18, label %cmpxchg.continue, label %cmpxchg.store_expected

cmpxchg.store_expected:                           ; preds = %while.end
  store i64 %17, ptr %_old, align 8
  br label %cmpxchg.continue

cmpxchg.continue:                                 ; preds = %cmpxchg.store_expected, %while.end
  %frombool = zext i1 %18 to i8
  store i8 %frombool, ptr %cmpxchg.bool, align 1
  %19 = load ptr, ptr %_old, align 8
  store ptr %19, ptr %tmp9, align 8
  %20 = load ptr, ptr %tmp9, align 8
  store ptr %20, ptr %tmp, align 8
  %21 = load ptr, ptr %tmp, align 8
  %22 = load ptr, ptr %save_sle_next, align 8
  %cmp = icmp ne ptr %21, %22
  br i1 %cmp, label %do.body2, label %do.end10, !llvm.loop !5

do.end10:                                         ; preds = %cmpxchg.continue
  br label %do.end12

do.end12:                                         ; preds = %do.end10
  br label %if.end

if.end:                                           ; preds = %do.end12, %entry
  %23 = load ptr, ptr %ctx, align 8
  call void @aio_notify(ptr noundef %23)
  call void @icount_notify_exit()
  ret void
}

; Function Attrs: nounwind sspstrong uwtable
define dso_local void @qemu_bh_schedule_idle(ptr noundef %bh) #0 {
entry:
  %bh.addr = alloca ptr, align 8
  store ptr %bh, ptr %bh.addr, align 8
  %0 = load ptr, ptr %bh.addr, align 8
  call void @aio_bh_enqueue(ptr noundef %0, i32 noundef 18)
  ret void
}