; Function Attrs: nounwind sspstrong uwtable
define dso_local void @qemu_bh_schedule_idle(ptr noundef %bh) local_unnamed_addr #0 {
entry:
  %0 = load ptr, ptr %bh, align 8
  %flags.i = getelementptr inbounds nuw i8, ptr %bh, i64 40
  %1 = atomicrmw or ptr %flags.i, i32 19 seq_cst, align 8
  %and.i = and i32 %1, 1
  %tobool.not.i = icmp eq i32 %and.i, 0
  br i1 %tobool.not.i, label %do.body2.preheader.i, label %if.end.i

do.body2.preheader.i:                             ; preds = %entry
  %bh_list.i = getelementptr inbounds nuw i8, ptr %0, i64 176
  %next.i = getelementptr inbounds nuw i8, ptr %bh, i64 32
  %2 = ptrtoint ptr %bh to i64
  br label %do.body2.i

do.body2.i:                                       ; preds = %do.body2.i, %do.body2.preheader.i
  %3 = load ptr, ptr %bh_list.i, align 8
  store ptr %3, ptr %next.i, align 8
  %4 = ptrtoint ptr %3 to i64
  %5 = cmpxchg ptr %bh_list.i, i64 %4, i64 %2 seq_cst seq_cst, align 8
  %6 = extractvalue { i64, i1 } %5, 1
  %7 = extractvalue { i64, i1 } %5, 0
  %8 = inttoptr i64 %7 to ptr
  %cmp.not7.i = icmp eq ptr %3, %8
  %cmp.not.i = select i1 %6, i1 true, i1 %cmp.not7.i
  br i1 %cmp.not.i, label %if.end.i, label %do.body2.i, !llvm.loop !5

if.end.i:                                         ; preds = %do.body2.i, %entry
  tail call void asm sideeffect "", "~{memory},~{dirflag},~{fpsr},~{flags}"() #13, !srcloc !7
  fence release
  %notified.i.i = getelementptr inbounds nuw i8, ptr %0, i64 200
  store atomic i8 1, ptr %notified.i.i monotonic, align 8
  tail call void asm sideeffect "", "~{memory},~{dirflag},~{fpsr},~{flags}"() #13, !srcloc !8
  fence seq_cst
  %notify_me.i.i = getelementptr inbounds nuw i8, ptr %0, i64 168
  %9 = load atomic i32, ptr %notify_me.i.i monotonic, align 8
  %tobool.not.i.i = icmp eq i32 %9, 0
  br i1 %tobool.not.i.i, label %aio_bh_enqueue.exit, label %if.then.i.i

if.then.i.i:                                      ; preds = %if.end.i
  %notifier.i.i = getelementptr inbounds nuw i8, ptr %0, i64 204
  %call.i.i = tail call i32 @event_notifier_set(ptr noundef nonnull %notifier.i.i) #13
  br label %aio_bh_enqueue.exit

aio_bh_enqueue.exit:                              ; preds = %if.end.i, %if.then.i.i
  tail call void @icount_notify_exit() #13
  ret void
}